; Function Attrs: mustprogress uwtable
define noundef nonnull align 8 dereferenceable(8) ptr @_ZN32pxrInternal_v0_24__pxrReserved__17UsdLuxLightFilter16_GetStaticTfTypeEv() local_unnamed_addr #0 align 2 personality ptr @__gxx_personality_v0 {
  %1 = load atomic i8, ptr @_ZGVZN32pxrInternal_v0_24__pxrReserved__17UsdLuxLightFilter16_GetStaticTfTypeEvE6tfType acquire, align 8
  %2 = icmp eq i8 %1, 0
  br i1 %2, label %3, label %8, !prof !4

3:                                                ; preds = %0
  %4 = tail call i32 @__cxa_guard_acquire(ptr nonnull @_ZGVZN32pxrInternal_v0_24__pxrReserved__17UsdLuxLightFilter16_GetStaticTfTypeEvE6tfType) #15
  %.not = icmp eq i32 %4, 0
  br i1 %.not, label %8, label %5

5:                                                ; preds = %3
  %6 = invoke noundef nonnull align 8 dereferenceable(8) ptr @_ZN32pxrInternal_v0_24__pxrReserved__6TfType13_FindByTypeidERKSt9type_info(ptr noundef nonnull align 8 dereferenceable(16) @_ZTIN32pxrInternal_v0_24__pxrReserved__17UsdLuxLightFilterE)
          to label %_ZN32pxrInternal_v0_24__pxrReserved__6TfType4FindINS_17UsdLuxLightFilterEEERKS0_v.exit unwind label %9

_ZN32pxrInternal_v0_24__pxrReserved__6TfType4FindINS_17UsdLuxLightFilterEEERKS0_v.exit: ; preds = %5
  %7 = load i64, ptr %6, align 8
  store i64 %7, ptr @_ZZN32pxrInternal_v0_24__pxrReserved__17UsdLuxLightFilter16_GetStaticTfTypeEvE6tfType, align 8
  tail call void @__cxa_guard_release(ptr nonnull @_ZGVZN32pxrInternal_v0_24__pxrReserved__17UsdLuxLightFilter16_GetStaticTfTypeEvE6tfType) #15
  br label %8

8:                                                ; preds = %_ZN32pxrInternal_v0_24__pxrReserved__6TfType4FindINS_17UsdLuxLightFilterEEERKS0_v.exit, %3, %0
  ret ptr @_ZZN32pxrInternal_v0_24__pxrReserved__17UsdLuxLightFilter16_GetStaticTfTypeEvE6tfType

9:                                                ; preds = %5
  %10 = landingpad { ptr, i32 }
          cleanup
  tail call void @__cxa_guard_abort(ptr nonnull @_ZGVZN32pxrInternal_v0_24__pxrReserved__17UsdLuxLightFilter16_GetStaticTfTypeEvE6tfType) #15
  resume { ptr, i32 } %10
}